; ModuleID = '55/416.c'
source_filename = "55/416.c"
target datalayout = "e-m:e-p270:32:32-p271:32:32-p272:64:64-i64:64-f80:128-n8:16:32:64-S128"
target triple = "x86_64-pc-linux-gnu"

@.str = private unnamed_addr constant [3 x i8] c"%d\00", align 1
@.str.1 = private unnamed_addr constant [3 x i8] c"%s\00", align 1
@.str.2 = private unnamed_addr constant [3 x i8] c"0\0A\00", align 1
@.str.3 = private unnamed_addr constant [3 x i8] c"%c\00", align 1

; Function Attrs: noinline nounwind uwtable
define dso_local void @main() #0 {
  %1 = alloca i32, align 4
  %2 = alloca i32, align 4
  %3 = alloca i32, align 4
  %4 = alloca i32, align 4
  %5 = alloca i32, align 4
  %6 = alloca i32, align 4
  %7 = alloca i32, align 4
  %8 = alloca i32, align 4
  %9 = alloca [1000 x i8], align 16
  %10 = alloca [1000 x i8], align 16
  store i32 1, i32* %7, align 4
  store i32 0, i32* %8, align 4
  %11 = bitcast [1000 x i8]* %9 to i8*
  call void @llvm.memset.p0i8.i64(i8* align 16 %11, i8 0, i64 1000, i1 false)
  %12 = bitcast [1000 x i8]* %10 to i8*
  call void @llvm.memset.p0i8.i64(i8* align 16 %12, i8 0, i64 1000, i1 false)
  %13 = call i32 (i8*, ...) @__isoc99_scanf(i8* getelementptr inbounds ([3 x i8], [3 x i8]* @.str, i64 0, i64 0), i32* %1)
  %14 = getelementptr inbounds [1000 x i8], [1000 x i8]* %9, i64 0, i64 0
  %15 = call i32 (i8*, ...) @__isoc99_scanf(i8* getelementptr inbounds ([3 x i8], [3 x i8]* @.str.1, i64 0, i64 0), i8* %14)
  %16 = call i32 (i8*, ...) @__isoc99_scanf(i8* getelementptr inbounds ([3 x i8], [3 x i8]* @.str, i64 0, i64 0), i32* %2)
  %17 = getelementptr inbounds [1000 x i8], [1000 x i8]* %9, i64 0, i64 0
  %18 = call i64 @strlen(i8* %17) #4
  %19 = trunc i64 %18 to i32
  store i32 %19, i32* %4, align 4
  store i32 0, i32* %3, align 4
  br label %20

20:                                               ; preds = %109, %0
  %21 = load i32, i32* %3, align 4
  %22 = load i32, i32* %4, align 4
  %23 = icmp slt i32 %21, %22
  br i1 %23, label %24, label %112

24:                                               ; preds = %20
  %25 = load i32, i32* %3, align 4
  %26 = sext i32 %25 to i64
  %27 = getelementptr inbounds [1000 x i8], [1000 x i8]* %9, i64 0, i64 %26
  %28 = load i8, i8* %27, align 1
  %29 = sext i8 %28 to i32
  %30 = icmp sge i32 %29, 65
  br i1 %30, label %31, label %49

31:                                               ; preds = %24
  %32 = load i32, i32* %3, align 4
  %33 = sext i32 %32 to i64
  %34 = getelementptr inbounds [1000 x i8], [1000 x i8]* %9, i64 0, i64 %33
  %35 = load i8, i8* %34, align 1
  %36 = sext i8 %35 to i32
  %37 = icmp sle i32 %36, 90
  br i1 %37, label %38, label %49

38:                                               ; preds = %31
  %39 = load i32, i32* %3, align 4
  %40 = sext i32 %39 to i64
  %41 = getelementptr inbounds [1000 x i8], [1000 x i8]* %9, i64 0, i64 %40
  %42 = load i8, i8* %41, align 1
  %43 = sext i8 %42 to i32
  %44 = sub nsw i32 %43, 55
  %45 = trunc i32 %44 to i8
  %46 = load i32, i32* %3, align 4
  %47 = sext i32 %46 to i64
  %48 = getelementptr inbounds [1000 x i8], [1000 x i8]* %9, i64 0, i64 %47
  store i8 %45, i8* %48, align 1
  br label %49

49:                                               ; preds = %38, %31, %24
  %50 = load i32, i32* %3, align 4
  %51 = sext i32 %50 to i64
  %52 = getelementptr inbounds [1000 x i8], [1000 x i8]* %9, i64 0, i64 %51
  %53 = load i8, i8* %52, align 1
  %54 = sext i8 %53 to i32
  %55 = icmp sge i32 %54, 97
  br i1 %55, label %56, label %74

56:                                               ; preds = %49
  %57 = load i32, i32* %3, align 4
  %58 = sext i32 %57 to i64
  %59 = getelementptr inbounds [1000 x i8], [1000 x i8]* %9, i64 0, i64 %58
  %60 = load i8, i8* %59, align 1
  %61 = sext i8 %60 to i32
  %62 = icmp sle i32 %61, 122
  br i1 %62, label %63, label %74

63:                                               ; preds = %56
  %64 = load i32, i32* %3, align 4
  %65 = sext i32 %64 to i64
  %66 = getelementptr inbounds [1000 x i8], [1000 x i8]* %9, i64 0, i64 %65
  %67 = load i8, i8* %66, align 1
  %68 = sext i8 %67 to i32
  %69 = sub nsw i32 %68, 87
  %70 = trunc i32 %69 to i8
  %71 = load i32, i32* %3, align 4
  %72 = sext i32 %71 to i64
  %73 = getelementptr inbounds [1000 x i8], [1000 x i8]* %9, i64 0, i64 %72
  store i8 %70, i8* %73, align 1
  br label %74

74:                                               ; preds = %63, %56, %49
  %75 = load i32, i32* %3, align 4
  %76 = sext i32 %75 to i64
  %77 = getelementptr inbounds [1000 x i8], [1000 x i8]* %9, i64 0, i64 %76
  %78 = load i8, i8* %77, align 1
  %79 = sext i8 %78 to i32
  %80 = icmp sge i32 %79, 48
  br i1 %80, label %81, label %99

81:                                               ; preds = %74
  %82 = load i32, i32* %3, align 4
  %83 = sext i32 %82 to i64
  %84 = getelementptr inbounds [1000 x i8], [1000 x i8]* %9, i64 0, i64 %83
  %85 = load i8, i8* %84, align 1
  %86 = sext i8 %85 to i32
  %87 = icmp sle i32 %86, 57
  br i1 %87, label %88, label %99

88:                                               ; preds = %81
  %89 = load i32, i32* %3, align 4
  %90 = sext i32 %89 to i64
  %91 = getelementptr inbounds [1000 x i8], [1000 x i8]* %9, i64 0, i64 %90
  %92 = load i8, i8* %91, align 1
  %93 = sext i8 %92 to i32
  %94 = sub nsw i32 %93, 48
  %95 = trunc i32 %94 to i8
  %96 = load i32, i32* %3, align 4
  %97 = sext i32 %96 to i64
  %98 = getelementptr inbounds [1000 x i8], [1000 x i8]* %9, i64 0, i64 %97
  store i8 %95, i8* %98, align 1
  br label %99

99:                                               ; preds = %88, %81, %74
  %100 = load i32, i32* %8, align 4
  %101 = load i32, i32* %1, align 4
  %102 = mul nsw i32 %100, %101
  %103 = load i32, i32* %3, align 4
  %104 = sext i32 %103 to i64
  %105 = getelementptr inbounds [1000 x i8], [1000 x i8]* %9, i64 0, i64 %104
  %106 = load i8, i8* %105, align 1
  %107 = sext i8 %106 to i32
  %108 = add nsw i32 %102, %107
  store i32 %108, i32* %8, align 4
  br label %109

109:                                              ; preds = %99
  %110 = load i32, i32* %3, align 4
  %111 = add nsw i32 %110, 1
  store i32 %111, i32* %3, align 4
  br label %20

112:                                              ; preds = %20
  %113 = load i32, i32* %8, align 4
  %114 = icmp eq i32 %113, 0
  br i1 %114, label %115, label %117

115:                                              ; preds = %112
  %116 = call i32 (i8*, ...) @printf(i8* getelementptr inbounds ([3 x i8], [3 x i8]* @.str.2, i64 0, i64 0))
  br label %117

117:                                              ; preds = %115, %112
  store i32 0, i32* %3, align 4
  br label %118

118:                                              ; preds = %155, %117
  %119 = load i32, i32* %8, align 4
  %120 = icmp sgt i32 %119, 0
  br i1 %120, label %121, label %158

121:                                              ; preds = %118
  %122 = load i32, i32* %8, align 4
  %123 = load i32, i32* %2, align 4
  %124 = srem i32 %122, %123
  store i32 %124, i32* %5, align 4
  %125 = load i32, i32* %5, align 4
  %126 = icmp sge i32 %125, 10
  br i1 %126, label %127, label %133

127:                                              ; preds = %121
  %128 = load i32, i32* %5, align 4
  %129 = icmp sle i32 %128, 35
  br i1 %129, label %130, label %133

130:                                              ; preds = %127
  %131 = load i32, i32* %5, align 4
  %132 = add nsw i32 %131, 55
  store i32 %132, i32* %5, align 4
  br label %133

133:                                              ; preds = %130, %127, %121
  %134 = load i32, i32* %5, align 4
  %135 = icmp sge i32 %134, 0
  br i1 %135, label %136, label %142

136:                                              ; preds = %133
  %137 = load i32, i32* %5, align 4
  %138 = icmp sle i32 %137, 9
  br i1 %138, label %139, label %142

139:                                              ; preds = %136
  %140 = load i32, i32* %5, align 4
  %141 = add nsw i32 %140, 48
  store i32 %141, i32* %5, align 4
  br label %142

142:                                              ; preds = %139, %136, %133
  %143 = load i32, i32* %8, align 4
  %144 = load i32, i32* %8, align 4
  %145 = load i32, i32* %2, align 4
  %146 = srem i32 %144, %145
  %147 = sub nsw i32 %143, %146
  %148 = load i32, i32* %2, align 4
  %149 = sdiv i32 %147, %148
  store i32 %149, i32* %8, align 4
  %150 = load i32, i32* %5, align 4
  %151 = trunc i32 %150 to i8
  %152 = load i32, i32* %3, align 4
  %153 = sext i32 %152 to i64
  %154 = getelementptr inbounds [1000 x i8], [1000 x i8]* %10, i64 0, i64 %153
  store i8 %151, i8* %154, align 1
  br label %155

155:                                              ; preds = %142
  %156 = load i32, i32* %3, align 4
  %157 = add nsw i32 %156, 1
  store i32 %157, i32* %3, align 4
  br label %118

158:                                              ; preds = %118
  %159 = getelementptr inbounds [1000 x i8], [1000 x i8]* %10, i64 0, i64 0
  %160 = call i64 @strlen(i8* %159) #4
  %161 = trunc i64 %160 to i32
  store i32 %161, i32* %6, align 4
  store i32 0, i32* %3, align 4
  br label %162

162:                                              ; preds = %184, %158
  %163 = load i32, i32* %3, align 4
  %164 = load i32, i32* %6, align 4
  %165 = icmp slt i32 %163, %164
  br i1 %165, label %166, label %187

166:                                              ; preds = %162
  %167 = load i32, i32* %3, align 4
  %168 = sext i32 %167 to i64
  %169 = getelementptr inbounds [1000 x i8], [1000 x i8]* %10, i64 0, i64 %168
  %170 = load i8, i8* %169, align 1
  %171 = sext i8 %170 to i32
  %172 = icmp ne i32 %171, 0
  br i1 %172, label %173, label %183

173:                                              ; preds = %166
  %174 = load i32, i32* %6, align 4
  %175 = sub nsw i32 %174, 1
  %176 = load i32, i32* %3, align 4
  %177 = sub nsw i32 %175, %176
  %178 = sext i32 %177 to i64
  %179 = getelementptr inbounds [1000 x i8], [1000 x i8]* %10, i64 0, i64 %178
  %180 = load i8, i8* %179, align 1
  %181 = sext i8 %180 to i32
  %182 = call i32 (i8*, ...) @printf(i8* getelementptr inbounds ([3 x i8], [3 x i8]* @.str.3, i64 0, i64 0), i32 %181)
  br label %183

183:                                              ; preds = %173, %166
  br label %184

184:                                              ; preds = %183
  %185 = load i32, i32* %3, align 4
  %186 = add nsw i32 %185, 1
  store i32 %186, i32* %3, align 4
  br label %162

187:                                              ; preds = %162
  ret void
}

; Function Attrs: argmemonly nounwind willreturn
declare void @llvm.memset.p0i8.i64(i8* nocapture writeonly, i8, i64, i1 immarg) #1

declare dso_local i32 @__isoc99_scanf(i8*, ...) #2

; Function Attrs: nounwind readonly
declare dso_local i64 @strlen(i8*) #3

declare dso_local i32 @printf(i8*, ...) #2


!llvm.module.flags = !{!0}
!llvm.ident = !{!1}

!0 = !{i32 1, !"wchar_size", i32 4}
!1 = !{!"clang version 10.0.0-4ubuntu1 "}
